target datalayout = "e-m:e-p270:32:32-p271:32:32-p272:64:64-i64:64-i128:128-f80:128-n8:16:32:64-S128"
target triple = "x86_64-pc-linux-gnu"

%class.LIR_Opr = type { i64 }
%class.XMMRegister = type { i32 }
%class.LIR_Assembler = type { ptr, ptr, ptr, ptr, ptr, ptr, i32, i32, %class.Label }
%class.Label = type <{ i32, [4 x i32], i32, ptr, i8, [7 x i8] }>
%class.LIR_Op = type { ptr, %class.LIR_Opr, i16, i16, ptr, i32, i32, ptr }
%class.LIR_Op3 = type { %class.LIR_Op, %class.LIR_Opr, %class.LIR_Opr, %class.LIR_Opr }

@g_assert_poison = external global ptr, align 8
@.str.8 = private unnamed_addr constant [44 x i8] c"src/hotspot/cpu/x86/c1_LIRAssembler_x86.cpp\00", align 1

; Function Attrs: mustprogress nounwind uwtable
define linkonce_odr hidden noundef ptr @_ZN7LIR_OprptEv(ptr noundef nonnull align 8 dereferenceable(8) %0) #1 comdat align 2 {
  %2 = alloca ptr, align 8
  store ptr %0, ptr %2, align 8
  %3 = load ptr, ptr %2, align 8
  ret ptr %3
}

; Function Attrs: mustprogress nounwind uwtable
define linkonce_odr hidden noundef ptr @_ZNK6LIR_Op4infoEv(ptr noundef nonnull align 8 dereferenceable(48) %0) #1 comdat align 2 {
  %2 = alloca ptr, align 8
  store ptr %0, ptr %2, align 8
  %3 = load ptr, ptr %2, align 8
  %4 = getelementptr inbounds %class.LIR_Op, ptr %3, i32 0, i32 4
  %5 = load ptr, ptr %4, align 8
  ret ptr %5
}

; Function Attrs: mustprogress nounwind uwtable
define linkonce_odr hidden i64 @_ZNK6LIR_Op10result_oprEv(ptr noundef nonnull align 8 dereferenceable(48) %0) #1 comdat align 2 {
  %2 = alloca %class.LIR_Opr, align 8
  %3 = alloca ptr, align 8
  store ptr %0, ptr %3, align 8
  %4 = load ptr, ptr %3, align 8
  %5 = getelementptr inbounds %class.LIR_Op, ptr %4, i32 0, i32 1
  call void @llvm.memcpy.p0.p0.i64(ptr align 8 %2, ptr align 8 %5, i64 8, i1 false)
  %6 = getelementptr inbounds %class.LIR_Opr, ptr %2, i32 0, i32 0
  %7 = load i64, ptr %6, align 8
  ret i64 %7
}

; Function Attrs: mustprogress nounwind uwtable
define linkonce_odr hidden i64 @_ZNK7LIR_Op37in_opr3Ev(ptr noundef nonnull align 8 dereferenceable(72) %0) #1 comdat align 2 {
  %2 = alloca %class.LIR_Opr, align 8
  %3 = alloca ptr, align 8
  store ptr %0, ptr %3, align 8
  %4 = load ptr, ptr %3, align 8
  %5 = getelementptr inbounds %class.LIR_Op3, ptr %4, i32 0, i32 3
  call void @llvm.memcpy.p0.p0.i64(ptr align 8 %2, ptr align 8 %5, i64 8, i1 false)
  %6 = getelementptr inbounds %class.LIR_Opr, ptr %2, i32 0, i32 0
  %7 = load i64, ptr %6, align 8
  ret i64 %7
}

; Function Attrs: mustprogress nounwind uwtable
define linkonce_odr hidden i64 @_ZNK7LIR_Op37in_opr2Ev(ptr noundef nonnull align 8 dereferenceable(72) %0) #1 comdat align 2 {
  %2 = alloca %class.LIR_Opr, align 8
  %3 = alloca ptr, align 8
  store ptr %0, ptr %3, align 8
  %4 = load ptr, ptr %3, align 8
  %5 = getelementptr inbounds %class.LIR_Op3, ptr %4, i32 0, i32 2
  call void @llvm.memcpy.p0.p0.i64(ptr align 8 %2, ptr align 8 %5, i64 8, i1 false)
  %6 = getelementptr inbounds %class.LIR_Opr, ptr %2, i32 0, i32 0
  %7 = load i64, ptr %6, align 8
  ret i64 %7
}

; Function Attrs: mustprogress nounwind uwtable
define linkonce_odr hidden i64 @_ZNK7LIR_Op37in_opr1Ev(ptr noundef nonnull align 8 dereferenceable(72) %0) #1 comdat align 2 {
  %2 = alloca %class.LIR_Opr, align 8
  %3 = alloca ptr, align 8
  store ptr %0, ptr %3, align 8
  %4 = load ptr, ptr %3, align 8
  %5 = getelementptr inbounds %class.LIR_Op3, ptr %4, i32 0, i32 1
  call void @llvm.memcpy.p0.p0.i64(ptr align 8 %2, ptr align 8 %5, i64 8, i1 false)
  %6 = getelementptr inbounds %class.LIR_Opr, ptr %2, i32 0, i32 0
  %7 = load i64, ptr %6, align 8
  ret i64 %7
}

; Function Attrs: mustprogress nounwind uwtable
define linkonce_odr hidden noundef i32 @_ZNK6LIR_Op4codeEv(ptr noundef nonnull align 8 dereferenceable(48) %0) #1 comdat align 2 {
  %2 = alloca ptr, align 8
  store ptr %0, ptr %2, align 8
  %3 = load ptr, ptr %2, align 8
  %4 = getelementptr inbounds %class.LIR_Op, ptr %3, i32 0, i32 2
  %5 = load i16, ptr %4, align 8
  %6 = zext i16 %5 to i32
  ret i32 %6
}

; Function Attrs: mustprogress nounwind uwtable
define hidden void @_ZN13LIR_Assembler8emit_op3EP7LIR_Op3(ptr noundef nonnull align 8 dereferenceable(96) %0, ptr noundef %1) #1 align 2 {
  %3 = alloca ptr, align 8
  %4 = alloca ptr, align 8
  %5 = alloca %class.LIR_Opr, align 8
  %6 = alloca %class.LIR_Opr, align 8
  %7 = alloca %class.LIR_Opr, align 8
  %8 = alloca %class.LIR_Opr, align 8
  %9 = alloca %class.XMMRegister, align 4
  %10 = alloca %class.LIR_Opr, align 8
  %11 = alloca %class.XMMRegister, align 4
  %12 = alloca %class.LIR_Opr, align 8
  %13 = alloca %class.XMMRegister, align 4
  %14 = alloca %class.LIR_Opr, align 8
  %15 = alloca %class.XMMRegister, align 4
  %16 = alloca %class.LIR_Opr, align 8
  %17 = alloca %class.XMMRegister, align 4
  %18 = alloca %class.LIR_Opr, align 8
  %19 = alloca %class.XMMRegister, align 4
  %20 = alloca %class.LIR_Opr, align 8
  %21 = alloca %class.XMMRegister, align 4
  %22 = alloca %class.LIR_Opr, align 8
  %23 = alloca %class.XMMRegister, align 4
  %24 = alloca %class.LIR_Opr, align 8
  store ptr %0, ptr %3, align 8
  store ptr %1, ptr %4, align 8
  %25 = load ptr, ptr %3, align 8
  %26 = load ptr, ptr %4, align 8
  %27 = call noundef i32 @_ZNK6LIR_Op4codeEv(ptr noundef nonnull align 8 dereferenceable(48) %26)
  switch i32 %27, label %123 [
    i32 67, label %28
    i32 68, label %28
    i32 69, label %53
    i32 70, label %88
  ]

28:                                               ; preds = %2, %2
  %29 = load ptr, ptr %4, align 8
  %30 = call noundef i32 @_ZNK6LIR_Op4codeEv(ptr noundef nonnull align 8 dereferenceable(48) %29)
  %31 = load ptr, ptr %4, align 8
  %32 = call i64 @_ZNK7LIR_Op37in_opr1Ev(ptr noundef nonnull align 8 dereferenceable(72) %31)
  %33 = getelementptr inbounds %class.LIR_Opr, ptr %5, i32 0, i32 0
  store i64 %32, ptr %33, align 8
  %34 = load ptr, ptr %4, align 8
  %35 = call i64 @_ZNK7LIR_Op37in_opr2Ev(ptr noundef nonnull align 8 dereferenceable(72) %34)
  %36 = getelementptr inbounds %class.LIR_Opr, ptr %6, i32 0, i32 0
  store i64 %35, ptr %36, align 8
  %37 = load ptr, ptr %4, align 8
  %38 = call i64 @_ZNK7LIR_Op37in_opr3Ev(ptr noundef nonnull align 8 dereferenceable(72) %37)
  %39 = getelementptr inbounds %class.LIR_Opr, ptr %7, i32 0, i32 0
  store i64 %38, ptr %39, align 8
  %40 = load ptr, ptr %4, align 8
  %41 = call i64 @_ZNK6LIR_Op10result_oprEv(ptr noundef nonnull align 8 dereferenceable(48) %40)
  %42 = getelementptr inbounds %class.LIR_Opr, ptr %8, i32 0, i32 0
  store i64 %41, ptr %42, align 8
  %43 = load ptr, ptr %4, align 8
  %44 = call noundef ptr @_ZNK6LIR_Op4infoEv(ptr noundef nonnull align 8 dereferenceable(48) %43)
  %45 = getelementptr inbounds %class.LIR_Opr, ptr %5, i32 0, i32 0
  %46 = load i64, ptr %45, align 8
  %47 = getelementptr inbounds %class.LIR_Opr, ptr %6, i32 0, i32 0
  %48 = load i64, ptr %47, align 8
  %49 = getelementptr inbounds %class.LIR_Opr, ptr %7, i32 0, i32 0
  %50 = load i64, ptr %49, align 8
  %51 = getelementptr inbounds %class.LIR_Opr, ptr %8, i32 0, i32 0
  %52 = load i64, ptr %51, align 8
  call void @_ZN13LIR_Assembler15arithmetic_idivE8LIR_Code7LIR_OprS1_S1_S1_P12CodeEmitInfo(ptr noundef nonnull align 8 dereferenceable(96) %25, i32 noundef %30, i64 %46, i64 %48, i64 %50, i64 %52, ptr noundef %44)
  br label %127

53:                                               ; preds = %2
  %54 = getelementptr inbounds %class.LIR_Assembler, ptr %25, i32 0, i32 0
  %55 = load ptr, ptr %54, align 8
  %56 = load ptr, ptr %4, align 8
  %57 = call i64 @_ZNK6LIR_Op10result_oprEv(ptr noundef nonnull align 8 dereferenceable(48) %56)
  %58 = getelementptr inbounds %class.LIR_Opr, ptr %10, i32 0, i32 0
  store i64 %57, ptr %58, align 8
  %59 = call noundef ptr @_ZN7LIR_OprptEv(ptr noundef nonnull align 8 dereferenceable(8) %10)
  %60 = call i32 @_ZNK7LIR_Opr17as_xmm_double_regEv(ptr noundef nonnull align 8 dereferenceable(8) %59)
  %61 = getelementptr inbounds %class.XMMRegister, ptr %9, i32 0, i32 0
  store i32 %60, ptr %61, align 4
  %62 = load ptr, ptr %4, align 8
  %63 = call i64 @_ZNK7LIR_Op37in_opr1Ev(ptr noundef nonnull align 8 dereferenceable(72) %62)
  %64 = getelementptr inbounds %class.LIR_Opr, ptr %12, i32 0, i32 0
  store i64 %63, ptr %64, align 8
  %65 = call noundef ptr @_ZN7LIR_OprptEv(ptr noundef nonnull align 8 dereferenceable(8) %12)
  %66 = call i32 @_ZNK7LIR_Opr17as_xmm_double_regEv(ptr noundef nonnull align 8 dereferenceable(8) %65)
  %67 = getelementptr inbounds %class.XMMRegister, ptr %11, i32 0, i32 0
  store i32 %66, ptr %67, align 4
  %68 = load ptr, ptr %4, align 8
  %69 = call i64 @_ZNK7LIR_Op37in_opr2Ev(ptr noundef nonnull align 8 dereferenceable(72) %68)
  %70 = getelementptr inbounds %class.LIR_Opr, ptr %14, i32 0, i32 0
  store i64 %69, ptr %70, align 8
  %71 = call noundef ptr @_ZN7LIR_OprptEv(ptr noundef nonnull align 8 dereferenceable(8) %14)
  %72 = call i32 @_ZNK7LIR_Opr17as_xmm_double_regEv(ptr noundef nonnull align 8 dereferenceable(8) %71)
  %73 = getelementptr inbounds %class.XMMRegister, ptr %13, i32 0, i32 0
  store i32 %72, ptr %73, align 4
  %74 = load ptr, ptr %4, align 8
  %75 = call i64 @_ZNK7LIR_Op37in_opr3Ev(ptr noundef nonnull align 8 dereferenceable(72) %74)
  %76 = getelementptr inbounds %class.LIR_Opr, ptr %16, i32 0, i32 0
  store i64 %75, ptr %76, align 8
  %77 = call noundef ptr @_ZN7LIR_OprptEv(ptr noundef nonnull align 8 dereferenceable(8) %16)
  %78 = call i32 @_ZNK7LIR_Opr17as_xmm_double_regEv(ptr noundef nonnull align 8 dereferenceable(8) %77)
  %79 = getelementptr inbounds %class.XMMRegister, ptr %15, i32 0, i32 0
  store i32 %78, ptr %79, align 4
  %80 = getelementptr inbounds %class.XMMRegister, ptr %9, i32 0, i32 0
  %81 = load i32, ptr %80, align 4
  %82 = getelementptr inbounds %class.XMMRegister, ptr %11, i32 0, i32 0
  %83 = load i32, ptr %82, align 4
  %84 = getelementptr inbounds %class.XMMRegister, ptr %13, i32 0, i32 0
  %85 = load i32, ptr %84, align 4
  %86 = getelementptr inbounds %class.XMMRegister, ptr %15, i32 0, i32 0
  %87 = load i32, ptr %86, align 4
  call void @_ZN14MacroAssembler4fmadE11XMMRegisterS0_S0_S0_(ptr noundef nonnull align 8 dereferenceable(40) %55, i32 %81, i32 %83, i32 %85, i32 %87)
  br label %127

88:                                               ; preds = %2
  %89 = getelementptr inbounds %class.LIR_Assembler, ptr %25, i32 0, i32 0
  %90 = load ptr, ptr %89, align 8
  %91 = load ptr, ptr %4, align 8
  %92 = call i64 @_ZNK6LIR_Op10result_oprEv(ptr noundef nonnull align 8 dereferenceable(48) %91)
  %93 = getelementptr inbounds %class.LIR_Opr, ptr %18, i32 0, i32 0
  store i64 %92, ptr %93, align 8
  %94 = call noundef ptr @_ZN7LIR_OprptEv(ptr noundef nonnull align 8 dereferenceable(8) %18)
  %95 = call i32 @_ZNK7LIR_Opr16as_xmm_float_regEv(ptr noundef nonnull align 8 dereferenceable(8) %94)
  %96 = getelementptr inbounds %class.XMMRegister, ptr %17, i32 0, i32 0
  store i32 %95, ptr %96, align 4
  %97 = load ptr, ptr %4, align 8
  %98 = call i64 @_ZNK7LIR_Op37in_opr1Ev(ptr noundef nonnull align 8 dereferenceable(72) %97)
  %99 = getelementptr inbounds %class.LIR_Opr, ptr %20, i32 0, i32 0
  store i64 %98, ptr %99, align 8
  %100 = call noundef ptr @_ZN7LIR_OprptEv(ptr noundef nonnull align 8 dereferenceable(8) %20)
  %101 = call i32 @_ZNK7LIR_Opr16as_xmm_float_regEv(ptr noundef nonnull align 8 dereferenceable(8) %100)
  %102 = getelementptr inbounds %class.XMMRegister, ptr %19, i32 0, i32 0
  store i32 %101, ptr %102, align 4
  %103 = load ptr, ptr %4, align 8
  %104 = call i64 @_ZNK7LIR_Op37in_opr2Ev(ptr noundef nonnull align 8 dereferenceable(72) %103)
  %105 = getelementptr inbounds %class.LIR_Opr, ptr %22, i32 0, i32 0
  store i64 %104, ptr %105, align 8
  %106 = call noundef ptr @_ZN7LIR_OprptEv(ptr noundef nonnull align 8 dereferenceable(8) %22)
  %107 = call i32 @_ZNK7LIR_Opr16as_xmm_float_regEv(ptr noundef nonnull align 8 dereferenceable(8) %106)
  %108 = getelementptr inbounds %class.XMMRegister, ptr %21, i32 0, i32 0
  store i32 %107, ptr %108, align 4
  %109 = load ptr, ptr %4, align 8
  %110 = call i64 @_ZNK7LIR_Op37in_opr3Ev(ptr noundef nonnull align 8 dereferenceable(72) %109)
  %111 = getelementptr inbounds %class.LIR_Opr, ptr %24, i32 0, i32 0
  store i64 %110, ptr %111, align 8
  %112 = call noundef ptr @_ZN7LIR_OprptEv(ptr noundef nonnull align 8 dereferenceable(8) %24)
  %113 = call i32 @_ZNK7LIR_Opr16as_xmm_float_regEv(ptr noundef nonnull align 8 dereferenceable(8) %112)
  %114 = getelementptr inbounds %class.XMMRegister, ptr %23, i32 0, i32 0
  store i32 %113, ptr %114, align 4
  %115 = getelementptr inbounds %class.XMMRegister, ptr %17, i32 0, i32 0
  %116 = load i32, ptr %115, align 4
  %117 = getelementptr inbounds %class.XMMRegister, ptr %19, i32 0, i32 0
  %118 = load i32, ptr %117, align 4
  %119 = getelementptr inbounds %class.XMMRegister, ptr %21, i32 0, i32 0
  %120 = load i32, ptr %119, align 4
  %121 = getelementptr inbounds %class.XMMRegister, ptr %23, i32 0, i32 0
  %122 = load i32, ptr %121, align 4
  call void @_ZN14MacroAssembler4fmafE11XMMRegisterS0_S0_S0_(ptr noundef nonnull align 8 dereferenceable(40) %90, i32 %116, i32 %118, i32 %120, i32 %122)
  br label %127

123:                                              ; preds = %2
  br label %124

124:                                              ; preds = %123
  %125 = load ptr, ptr @g_assert_poison, align 8
  store i8 88, ptr %125, align 1
  call void @_Z28report_should_not_reach_herePKci(ptr noundef @.str.8, i32 noundef 1381) #6
  unreachable

126:                                              ; No predecessors!
  br label %127

127:                                              ; preds = %126, %88, %53, %28
  ret void
}