; Function Attrs: mustprogress nounwind uwtable
define hidden void @_ZN13LIR_Assembler8emit_op3EP7LIR_Op3(ptr noundef nonnull align 8 dereferenceable(96) %0, ptr nocapture noundef readonly %1) local_unnamed_addr #0 align 2 {
  %3 = alloca %class.LIR_Opr, align 8
  %4 = alloca %class.LIR_Opr, align 8
  %5 = alloca %class.LIR_Opr, align 8
  %6 = alloca %class.LIR_Opr, align 8
  %7 = alloca %class.LIR_Opr, align 8
  %8 = alloca %class.LIR_Opr, align 8
  %9 = alloca %class.LIR_Opr, align 8
  %10 = alloca %class.LIR_Opr, align 8
  %11 = getelementptr inbounds i8, ptr %1, i64 16
  %12 = load i16, ptr %11, align 8
  switch i16 %12, label %40 [
    i16 67, label %13
    i16 68, label %13
    i16 69, label %20
    i16 70, label %30
  ]

13:                                               ; preds = %2, %2
  %14 = zext nneg i16 %12 to i32
  %15 = getelementptr inbounds i8, ptr %1, i64 48
  %.sroa.0.0.copyload.i = load i64, ptr %15, align 8
  %16 = getelementptr inbounds i8, ptr %1, i64 56
  %.sroa.0.0.copyload.i27 = load i64, ptr %16, align 8
  %17 = getelementptr inbounds i8, ptr %1, i64 8
  %.sroa.0.0.copyload.i29 = load i64, ptr %17, align 8
  %18 = getelementptr inbounds i8, ptr %1, i64 24
  %19 = load ptr, ptr %18, align 8
  tail call void @_ZN13LIR_Assembler15arithmetic_idivE8LIR_Code7LIR_OprS1_S1_S1_P12CodeEmitInfo(ptr noundef nonnull align 8 dereferenceable(96) %0, i32 noundef %14, i64 %.sroa.0.0.copyload.i, i64 %.sroa.0.0.copyload.i27, i64 poison, i64 %.sroa.0.0.copyload.i29, ptr noundef %19)
  br label %42

20:                                               ; preds = %2
  %21 = load ptr, ptr %0, align 8
  %22 = getelementptr inbounds i8, ptr %1, i64 8
  %.sroa.0.0.copyload.i30 = load i64, ptr %22, align 8
  store i64 %.sroa.0.0.copyload.i30, ptr %3, align 8
  %23 = call i32 @_ZNK7LIR_Opr17as_xmm_double_regEv(ptr noundef nonnull align 8 dereferenceable(8) %3) #15
  %24 = getelementptr inbounds i8, ptr %1, i64 48
  %.sroa.0.0.copyload.i31 = load i64, ptr %24, align 8
  store i64 %.sroa.0.0.copyload.i31, ptr %4, align 8
  %25 = call i32 @_ZNK7LIR_Opr17as_xmm_double_regEv(ptr noundef nonnull align 8 dereferenceable(8) %4) #15
  %26 = getelementptr inbounds i8, ptr %1, i64 56
  %.sroa.0.0.copyload.i32 = load i64, ptr %26, align 8
  store i64 %.sroa.0.0.copyload.i32, ptr %5, align 8
  %27 = call i32 @_ZNK7LIR_Opr17as_xmm_double_regEv(ptr noundef nonnull align 8 dereferenceable(8) %5) #15
  %28 = getelementptr inbounds i8, ptr %1, i64 64
  %.sroa.0.0.copyload.i33 = load i64, ptr %28, align 8
  store i64 %.sroa.0.0.copyload.i33, ptr %6, align 8
  %29 = call i32 @_ZNK7LIR_Opr17as_xmm_double_regEv(ptr noundef nonnull align 8 dereferenceable(8) %6) #15
  call void @_ZN14MacroAssembler4fmadE11XMMRegisterS0_S0_S0_(ptr noundef nonnull align 8 dereferenceable(40) %21, i32 %23, i32 %25, i32 %27, i32 %29) #15
  br label %42

30:                                               ; preds = %2
  %31 = load ptr, ptr %0, align 8
  %32 = getelementptr inbounds i8, ptr %1, i64 8
  %.sroa.0.0.copyload.i34 = load i64, ptr %32, align 8
  store i64 %.sroa.0.0.copyload.i34, ptr %7, align 8
  %33 = call i32 @_ZNK7LIR_Opr16as_xmm_float_regEv(ptr noundef nonnull align 8 dereferenceable(8) %7) #15
  %34 = getelementptr inbounds i8, ptr %1, i64 48
  %.sroa.0.0.copyload.i35 = load i64, ptr %34, align 8
  store i64 %.sroa.0.0.copyload.i35, ptr %8, align 8
  %35 = call i32 @_ZNK7LIR_Opr16as_xmm_float_regEv(ptr noundef nonnull align 8 dereferenceable(8) %8) #15
  %36 = getelementptr inbounds i8, ptr %1, i64 56
  %.sroa.0.0.copyload.i36 = load i64, ptr %36, align 8
  store i64 %.sroa.0.0.copyload.i36, ptr %9, align 8
  %37 = call i32 @_ZNK7LIR_Opr16as_xmm_float_regEv(ptr noundef nonnull align 8 dereferenceable(8) %9) #15
  %38 = getelementptr inbounds i8, ptr %1, i64 64
  %.sroa.0.0.copyload.i37 = load i64, ptr %38, align 8
  store i64 %.sroa.0.0.copyload.i37, ptr %10, align 8
  %39 = call i32 @_ZNK7LIR_Opr16as_xmm_float_regEv(ptr noundef nonnull align 8 dereferenceable(8) %10) #15
  call void @_ZN14MacroAssembler4fmafE11XMMRegisterS0_S0_S0_(ptr noundef nonnull align 8 dereferenceable(40) %31, i32 %33, i32 %35, i32 %37, i32 %39) #15
  br label %42

40:                                               ; preds = %2
  %41 = load ptr, ptr @g_assert_poison, align 8
  store i8 88, ptr %41, align 1
  tail call void @_Z28report_should_not_reach_herePKci(ptr noundef nonnull @.str.8, i32 noundef 1381) #16
  unreachable

42:                                               ; preds = %30, %20, %13
  ret void
}